Certificate:
    Data:
        Version: 3 (0x2)
        Serial Number:
            07:12:87:ff:58:96:7b:2b:ec:27:48:dc:1d:f7:5a:3f
        Signature Algorithm: sha256WithRSAEncryption
        Issuer: CN=1987799
        Validity
            Not Before: Dec 13 14:49:07 2025 GMT
            Not After : Nov 27 14:49:07 2028 GMT
        Subject: CN=vpn_client_2
        Subject Public Key Info:
            Public Key Algorithm: rsaEncryption
                Public-Key: (2048 bit)
                Modulus:
                    00:c0:b5:02:a0:38:6f:10:af:44:40:2f:f1:50:40:
                    92:1a:29:dd:b3:7e:69:89:ab:9a:88:40:60:a2:16:
                    72:1e:a0:e6:de:d9:3a:f2:e3:a4:11:00:17:70:87:
                    03:01:df:b4:60:7b:8e:c0:8c:ff:aa:a9:fb:86:9a:
                    4f:a3:ea:e2:ad:df:87:94:a6:bd:e6:1e:f4:55:b4:
                    d6:56:be:c2:73:f4:57:0e:91:0a:c2:80:f1:b3:90:
                    a0:84:82:ff:e3:fd:e0:d1:56:bc:d8:86:de:b5:05:
                    a2:22:67:74:79:b1:d2:1e:17:1b:46:e8:62:6d:50:
                    a3:fa:9e:2e:80:7c:68:da:87:bd:83:d9:b6:47:42:
                    06:2c:02:87:38:80:9f:63:52:2e:5b:a4:ce:a0:6d:
                    dd:9e:df:25:1c:26:68:5d:a4:be:b9:b0:5c:ce:8b:
                    37:30:5d:a0:f3:7b:9b:0f:8c:0e:f3:55:d1:7f:08:
                    9d:2a:36:7a:19:33:e9:cb:84:78:79:ad:30:03:72:
                    ea:1b:a3:58:aa:14:00:3a:b6:3a:a4:03:15:df:31:
                    b9:7b:cd:60:b1:1c:67:3d:66:7b:1e:c7:c7:e7:cf:
                    73:c8:aa:f7:12:86:89:71:ea:69:85:f5:ff:d0:02:
                    53:78:a3:56:ff:f5:ca:1c:2a:80:5a:c2:be:35:ae:
                    eb:3b
                Exponent: 65537 (0x10001)
        X509v3 extensions:
            X509v3 Basic Constraints: 
                CA:FALSE
            X509v3 Subject Key Identifier: 
                D3:09:41:3A:38:94:44:FF:C1:5D:11:84:C9:A3:87:DE:21:7C:50:F0
            X509v3 Authority Key Identifier: 
                keyid:0C:C1:AA:9A:07:FC:8E:E1:AA:10:ED:72:9F:E8:F3:8F:89:3A:AB:5F
                DirName:/CN=1987799
                serial:53:CF:BB:CF:51:F7:45:6A:73:5F:3D:8F:76:6C:6F:EF:9C:D4:4E:D8
            X509v3 Extended Key Usage: 
                TLS Web Client Authentication
            X509v3 Key Usage: 
                Digital Signature
    Signature Algorithm: sha256WithRSAEncryption
    Signature Value:
        2e:84:66:36:7d:fb:c6:81:eb:2c:6b:ca:a5:8b:cc:e3:72:e1:
        94:a5:3e:e8:b4:b1:d1:4b:61:e2:9c:65:8f:4d:94:72:e7:70:
        fa:74:37:27:a1:c8:29:ea:83:18:c2:8e:b1:ea:9d:90:f8:a6:
        ea:37:0c:a2:60:50:ed:17:d1:64:8b:07:49:90:65:08:4f:41:
        1a:8f:d5:21:5a:39:bd:72:50:09:e1:72:61:21:c5:34:ba:60:
        01:16:cb:e2:69:94:dd:fb:48:cd:e4:c2:46:b1:6f:d0:e6:02:
        c3:ca:64:91:25:01:a8:19:08:5b:a6:d7:e6:84:8d:10:22:d4:
        81:b6:6d:43:51:52:e8:c1:5c:4e:0c:ee:e6:2d:b4:8a:ea:23:
        0c:1a:82:7b:55:e2:45:a9:db:14:2c:ac:b6:05:5f:91:f8:c8:
        5d:2a:3f:cc:dd:cf:d6:eb:2d:c3:16:6f:5d:c7:90:4a:91:33:
        98:59:55:13:43:ed:ca:10:4a:99:1e:30:29:95:83:85:cd:b9:
        4e:09:11:77:8d:9e:e0:a0:f6:8c:ef:41:d7:72:41:0c:85:31:
        f5:a1:e0:ba:d9:5f:42:79:bd:e9:4c:4d:3d:2e:19:73:51:44:
        ed:64:1a:dc:d3:0c:8a:60:0b:3c:49:5f:29:c0:2f:7a:77:83:
        0b:60:51:93
-----BEGIN CERTIFICATE-----
MIIDUjCCAjqgAwIBAgIQBxKH/1iWeyvsJ0jcHfdaPzANBgkqhkiG9w0BAQsFADAS
MRAwDgYDVQQDDAcxOTg3Nzk5MB4XDTI1MTIxMzE0NDkwN1oXDTI4MTEyNzE0NDkw
N1owFzEVMBMGA1UEAwwMdnBuX2NsaWVudF8yMIIBIjANBgkqhkiG9w0BAQEFAAOC
AQ8AMIIBCgKCAQEAwLUCoDhvEK9EQC/xUECSGinds35piauaiEBgohZyHqDm3tk6
8uOkEQAXcIcDAd+0YHuOwIz/qqn7hppPo+rird+HlKa95h70VbTWVr7Cc/RXDpEK
woDxs5CghIL/4/3g0Va82IbetQWiImd0ebHSHhcbRuhibVCj+p4ugHxo2oe9g9m2
R0IGLAKHOICfY1IuW6TOoG3dnt8lHCZoXaS+ubBczos3MF2g83ubD4wO81XRfwid
KjZ6GTPpy4R4ea0wA3LqG6NYqhQAOrY6pAMV3zG5e81gsRxnPWZ7HsfH589zyKr3
EoaJcepphfX/0AJTeKNW//XKHCqAWsK+Na7rOwIDAQABo4GeMIGbMAkGA1UdEwQC
MAAwHQYDVR0OBBYEFNMJQTo4lET/wV0RhMmjh94hfFDwME0GA1UdIwRGMESAFAzB
qpoH/I7hqhDtcp/o84+JOqtfoRakFDASMRAwDgYDVQQDDAcxOTg3Nzk5ghRTz7vP
UfdFanNfPY92bG/vnNRO2DATBgNVHSUEDDAKBggrBgEFBQcDAjALBgNVHQ8EBAMC
B4AwDQYJKoZIhvcNAQELBQADggEBAC6EZjZ9+8aB6yxryqWLzONy4ZSlPui0sdFL
YeKcZY9NlHLncPp0NyehyCnqgxjCjrHqnZD4puo3DKJgUO0X0WSLB0mQZQhPQRqP
1SFaOb1yUAnhcmEhxTS6YAEWy+JplN37SM3kwkaxb9DmAsPKZJElAagZCFum1+aE
jRAi1IG2bUNRUujBXE4M7uYttIrqIwwagntV4kWp2xQsrLYFX5H4yF0qP8zdz9br
LcMWb13HkEqRM5hZVRND7coQSpkeMCmVg4XNuU4JEXeNnuCg9ozvQddyQQyFMfWh
4LrZX0J5velMTT0uGXNRRO1kGtzTDIpgCzxJXynAL3p3gwtgUZM=
-----END CERTIFICATE-----
