Certificate:
    Data:
        Version: 3 (0x2)
        Serial Number:
            a2:6d:79:ae:99:16:12:4a:a2:e4:96:76:b8:02:e4:39
        Signature Algorithm: sha256WithRSAEncryption
        Issuer: CN=1987799
        Validity
            Not Before: Dec 13 14:49:04 2025 GMT
            Not After : Nov 27 14:49:04 2028 GMT
        Subject: CN=vpn_client_1
        Subject Public Key Info:
            Public Key Algorithm: rsaEncryption
                Public-Key: (2048 bit)
                Modulus:
                    00:a0:34:d8:33:83:cd:fe:23:e6:17:9e:65:8e:8d:
                    9a:1c:47:11:49:46:c4:29:e0:7b:b6:cb:c0:ca:35:
                    82:fe:ef:4f:57:fc:92:ec:c4:b5:58:4e:f2:ac:7d:
                    02:0b:89:3a:99:e5:64:a2:d8:57:6a:6a:cb:7e:75:
                    f5:47:29:e3:4a:2c:d9:d4:a9:d7:14:d0:bf:a1:c5:
                    59:9f:3a:12:d0:ba:3e:37:f7:04:7a:32:2d:d7:b0:
                    ed:55:65:e8:b0:b9:28:b9:35:26:73:b5:dc:a0:a8:
                    71:4b:dc:d3:b7:98:0a:5c:47:28:10:6a:24:ac:5e:
                    1a:f1:ca:b8:33:6b:20:1c:8d:77:4a:96:bd:ce:36:
                    82:8a:93:e7:b4:e8:be:52:e0:1c:04:16:21:58:2b:
                    81:84:48:93:cd:cf:5c:ec:af:e6:f6:54:09:5c:f8:
                    9e:80:74:1c:97:75:36:22:62:6d:a2:99:e9:10:a0:
                    de:6b:1b:7f:e3:5d:d3:a6:dd:84:73:b5:37:f6:6f:
                    f3:e6:b3:2d:31:1e:6a:55:9e:8d:10:cf:c9:9d:cd:
                    15:8b:80:90:52:72:1a:14:11:b4:05:81:76:b1:58:
                    8b:63:9a:c3:88:ea:8a:2b:9c:52:b9:1f:d9:0d:90:
                    02:4a:eb:ef:fb:8f:13:58:60:e2:27:c6:89:53:9a:
                    75:19
                Exponent: 65537 (0x10001)
        X509v3 extensions:
            X509v3 Basic Constraints: 
                CA:FALSE
            X509v3 Subject Key Identifier: 
                82:C6:28:83:66:57:8A:DF:76:A1:36:49:66:A8:78:18:93:9F:F3:96
            X509v3 Authority Key Identifier: 
                keyid:0C:C1:AA:9A:07:FC:8E:E1:AA:10:ED:72:9F:E8:F3:8F:89:3A:AB:5F
                DirName:/CN=1987799
                serial:53:CF:BB:CF:51:F7:45:6A:73:5F:3D:8F:76:6C:6F:EF:9C:D4:4E:D8
            X509v3 Extended Key Usage: 
                TLS Web Client Authentication
            X509v3 Key Usage: 
                Digital Signature
    Signature Algorithm: sha256WithRSAEncryption
    Signature Value:
        65:91:e6:eb:73:c4:bb:23:2b:91:e4:d7:7c:15:1e:ae:b6:ed:
        2f:85:8f:ba:8a:d7:a0:15:bb:39:ea:d5:45:12:6e:5e:c2:24:
        d0:94:e4:6a:51:24:ee:d8:5a:ed:29:e7:fb:d1:77:60:99:9b:
        da:10:cd:9a:c9:2b:80:38:68:1c:ff:37:98:ec:d3:01:cf:77:
        d2:f7:2b:a1:e9:8f:ba:87:7e:6b:5c:05:a1:6c:73:04:70:fd:
        ca:22:00:ae:bd:d7:e1:71:d6:a9:a7:25:51:16:df:bb:f2:0f:
        1f:16:56:ae:54:ab:de:37:84:75:25:00:7d:cf:9d:53:75:76:
        4e:03:d7:46:e2:59:90:42:dd:0f:72:16:29:88:52:60:1a:75:
        9d:51:9c:f7:cc:53:5b:e4:4d:5c:2c:9d:5a:0f:8a:9a:c6:b8:
        8b:c2:ca:27:1a:ab:6a:a2:62:36:73:a9:7a:82:a0:3f:d4:09:
        04:89:63:90:f0:82:e1:c4:2d:24:e0:c8:9a:a7:54:eb:f4:15:
        6d:46:07:5b:81:03:74:7d:78:df:a2:ca:78:c6:dc:91:07:43:
        1c:88:3e:34:a5:ba:01:0f:5d:8d:71:47:ca:13:6c:a9:12:63:
        03:f6:cc:11:7e:49:8f:12:42:73:09:89:dc:d5:30:db:e1:6a:
        9a:0d:36:1f
-----BEGIN CERTIFICATE-----
MIIDUzCCAjugAwIBAgIRAKJtea6ZFhJKouSWdrgC5DkwDQYJKoZIhvcNAQELBQAw
EjEQMA4GA1UEAwwHMTk4Nzc5OTAeFw0yNTEyMTMxNDQ5MDRaFw0yODExMjcxNDQ5
MDRaMBcxFTATBgNVBAMMDHZwbl9jbGllbnRfMTCCASIwDQYJKoZIhvcNAQEBBQAD
ggEPADCCAQoCggEBAKA02DODzf4j5heeZY6NmhxHEUlGxCnge7bLwMo1gv7vT1f8
kuzEtVhO8qx9AguJOpnlZKLYV2pqy3519Ucp40os2dSp1xTQv6HFWZ86EtC6Pjf3
BHoyLdew7VVl6LC5KLk1JnO13KCocUvc07eYClxHKBBqJKxeGvHKuDNrIByNd0qW
vc42goqT57TovlLgHAQWIVgrgYRIk83PXOyv5vZUCVz4noB0HJd1NiJibaKZ6RCg
3msbf+Nd06bdhHO1N/Zv8+azLTEealWejRDPyZ3NFYuAkFJyGhQRtAWBdrFYi2Oa
w4jqiiucUrkf2Q2QAkrr7/uPE1hg4ifGiVOadRkCAwEAAaOBnjCBmzAJBgNVHRME
AjAAMB0GA1UdDgQWBBSCxiiDZleK33ahNklmqHgYk5/zljBNBgNVHSMERjBEgBQM
waqaB/yO4aoQ7XKf6POPiTqrX6EWpBQwEjEQMA4GA1UEAwwHMTk4Nzc5OYIUU8+7
z1H3RWpzXz2Pdmxv75zUTtgwEwYDVR0lBAwwCgYIKwYBBQUHAwIwCwYDVR0PBAQD
AgeAMA0GCSqGSIb3DQEBCwUAA4IBAQBlkebrc8S7IyuR5Nd8FR6utu0vhY+6iteg
Fbs56tVFEm5ewiTQlORqUSTu2FrtKef70XdgmZvaEM2aySuAOGgc/zeY7NMBz3fS
9yuh6Y+6h35rXAWhbHMEcP3KIgCuvdfhcdappyVRFt+78g8fFlauVKveN4R1JQB9
z51TdXZOA9dG4lmQQt0PchYpiFJgGnWdUZz3zFNb5E1cLJ1aD4qaxriLwsonGqtq
omI2c6l6gqA/1AkEiWOQ8ILhxC0k4Miap1Tr9BVtRgdbgQN0fXjfosp4xtyRB0Mc
iD40pboBD12NcUfKE2ypEmMD9swRfkmPEkJzCYnc1TDb4WqaDTYf
-----END CERTIFICATE-----
